target datalayout = "e-m:e-p270:32:32-p271:32:32-p272:64:64-i64:64-i128:128-f80:128-n8:16:32:64-S128"
target triple = "x86_64-pc-linux-gnu"

%struct.dirent = type { i64, i64, i16, i8, [256 x i8] }
%"class.SystemProcessInterface::SystemProcesses::ProcessIterator" = type <{ ptr, ptr, i8, [4096 x i8], [4096 x i8], [7 x i8] }>

@.str.7 = private unnamed_addr constant [13 x i8] c"/proc/%s/exe\00", align 1

; Function Attrs: mustprogress nounwind uwtable
define hidden noundef ptr @_ZN22SystemProcessInterface15SystemProcesses15ProcessIterator12get_exe_pathEv(ptr noundef nonnull align 8 dereferenceable(8209) %0) #1 align 2 {
  %2 = alloca ptr, align 8
  %3 = alloca [4096 x i8], align 16
  store ptr %0, ptr %2, align 8
  %4 = load ptr, ptr %2, align 8
  %5 = getelementptr inbounds [4096 x i8], ptr %3, i64 0, i64 0
  %6 = getelementptr inbounds %"class.SystemProcessInterface::SystemProcesses::ProcessIterator", ptr %4, i32 0, i32 1
  %7 = load ptr, ptr %6, align 8
  %8 = getelementptr inbounds %struct.dirent, ptr %7, i32 0, i32 4
  %9 = getelementptr inbounds [256 x i8], ptr %8, i64 0, i64 0
  %10 = call i32 (ptr, i64, ptr, ...) @jio_snprintf(ptr noundef %5, i64 noundef 4096, ptr noundef @.str.7, ptr noundef %9)
  %11 = getelementptr inbounds [4096 x i8], ptr %3, i64 0, i64 4095
  store i8 0, ptr %11, align 1
  %12 = getelementptr inbounds [4096 x i8], ptr %3, i64 0, i64 0
  %13 = getelementptr inbounds %"class.SystemProcessInterface::SystemProcesses::ProcessIterator", ptr %4, i32 0, i32 4
  %14 = getelementptr inbounds [4096 x i8], ptr %13, i64 0, i64 0
  %15 = call noundef ptr @_ZN2os5Posix8realpathEPKcPcm(ptr noundef %12, ptr noundef %14, i64 noundef 4096)
  ret ptr %15
}