; Function Attrs: mustprogress nounwind uwtable
define hidden noundef ptr @_ZN22SystemProcessInterface15SystemProcesses15ProcessIterator12get_exe_pathEv(ptr noundef nonnull align 8 dereferenceable(8209) %0) local_unnamed_addr #0 align 2 {
  %2 = alloca [4096 x i8], align 16
  %3 = getelementptr inbounds i8, ptr %0, i64 8
  %4 = load ptr, ptr %3, align 8
  %5 = getelementptr inbounds i8, ptr %4, i64 19
  %6 = call i32 (ptr, i64, ptr, ...) @jio_snprintf(ptr noundef nonnull %2, i64 noundef 4096, ptr noundef nonnull @.str.7, ptr noundef nonnull %5) #18
  %7 = getelementptr inbounds i8, ptr %2, i64 4095
  store i8 0, ptr %7, align 1
  %8 = getelementptr inbounds i8, ptr %0, i64 4113
  %9 = call noundef ptr @_ZN2os5Posix8realpathEPKcPcm(ptr noundef nonnull %2, ptr noundef nonnull %8, i64 noundef 4096) #18
  ret ptr %9
}